; Function Attrs: mustprogress nofree norecurse nosync nounwind willreturn memory(read, inaccessiblemem: none) uwtable
define noundef i64 @_ZN6casadi11Interpolant10coeff_sizeERKSt6vectorIxSaIxEEx(ptr nocapture noundef nonnull readonly align 8 dereferenceable(24) %0, i64 noundef %1) local_unnamed_addr #5 align 2 {
  %3 = getelementptr inbounds i8, ptr %0, i64 8
  %4 = load ptr, ptr %3, align 8
  %5 = load ptr, ptr %0, align 8
  %6 = ptrtoint ptr %4 to i64
  %7 = ptrtoint ptr %5 to i64
  %8 = sub i64 %6, %7
  %9 = ashr exact i64 %8, 3
  %10 = add nsw i64 %9, -1
  %.not = icmp eq i64 %10, 0
  br i1 %.not, label %._crit_edge, label %.lr.ph.preheader

.lr.ph.preheader:                                 ; preds = %2
  %.pre = load i64, ptr %5, align 8
  br label %.lr.ph

.lr.ph:                                           ; preds = %.lr.ph.preheader, %.lr.ph
  %11 = phi i64 [ %14, %.lr.ph ], [ %.pre, %.lr.ph.preheader ]
  %.011 = phi i64 [ %12, %.lr.ph ], [ 0, %.lr.ph.preheader ]
  %.0910 = phi i64 [ %16, %.lr.ph ], [ 1, %.lr.ph.preheader ]
  %12 = add nuw nsw i64 %.011, 1
  %13 = getelementptr inbounds i64, ptr %5, i64 %12
  %14 = load i64, ptr %13, align 8
  %15 = sub nsw i64 %14, %11
  %16 = mul nsw i64 %15, %.0910
  %exitcond.not = icmp eq i64 %12, %10
  br i1 %exitcond.not, label %._crit_edge, label %.lr.ph, !llvm.loop !37

._crit_edge:                                      ; preds = %.lr.ph, %2
  %.09.lcssa = phi i64 [ 1, %2 ], [ %16, %.lr.ph ]
  %17 = mul nsw i64 %.09.lcssa, %1
  ret i64 %17
}